; Function Attrs: nounwind uwtable
define internal void @recff_math_ldexp(ptr noundef %0, ptr readnone captures(none) %1) #0 {
  %3 = getelementptr inbounds nuw i8, ptr %0, i64 160
  %4 = load ptr, ptr %3, align 8, !tbaa !37
  %5 = load i32, ptr %4, align 4, !tbaa !39
  %6 = tail call i32 @lj_ir_tonum(ptr noundef %0, i32 noundef %5) #9
  %7 = load ptr, ptr %3, align 8, !tbaa !37
  %8 = getelementptr inbounds nuw i8, ptr %7, i64 4
  %9 = load i32, ptr %8, align 4, !tbaa !39
  %10 = tail call i32 @lj_ir_tonum(ptr noundef %0, i32 noundef %9) #9
  %11 = trunc i32 %6 to i16
  %12 = trunc i32 %10 to i16
  %13 = getelementptr inbounds nuw i8, ptr %0, i64 184
  %14 = getelementptr inbounds nuw i8, ptr %0, i64 188
  store i16 12558, ptr %14, align 4, !tbaa !4
  store i16 %11, ptr %13, align 8, !tbaa !4
  %15 = getelementptr inbounds nuw i8, ptr %0, i64 186
  store i16 %12, ptr %15, align 2, !tbaa !4
  %16 = tail call i32 @lj_opt_fold(ptr noundef %0) #9
  %17 = load ptr, ptr %3, align 8, !tbaa !37
  store i32 %16, ptr %17, align 4, !tbaa !39
  ret void
}